target datalayout = "e-m:e-p270:32:32-p271:32:32-p272:64:64-i64:64-i128:128-f80:128-n8:16:32:64-S128"
target triple = "x86_64-pc-linux-gnu"

%struct.sharedObjectsStruct = type { ptr, ptr, ptr, ptr, ptr, ptr, ptr, ptr, [4 x ptr], [4 x ptr], [4 x ptr], [4 x ptr], ptr, ptr, ptr, ptr, ptr, ptr, ptr, ptr, ptr, ptr, ptr, ptr, ptr, ptr, ptr, ptr, ptr, ptr, ptr, ptr, ptr, ptr, ptr, ptr, ptr, ptr, ptr, ptr, ptr, ptr, ptr, ptr, ptr, ptr, ptr, ptr, ptr, ptr, ptr, ptr, ptr, ptr, ptr, ptr, ptr, ptr, ptr, ptr, ptr, ptr, ptr, ptr, ptr, ptr, ptr, ptr, ptr, ptr, ptr, ptr, ptr, ptr, ptr, ptr, ptr, ptr, ptr, ptr, ptr, ptr, ptr, ptr, ptr, ptr, ptr, ptr, [10 x ptr], [10000 x ptr], [32 x ptr], [32 x ptr], [32 x ptr], [32 x ptr], ptr, ptr }
%struct.redisServer = type { i32, i64, ptr, ptr, ptr, i32, i32, i32, i32, i32, ptr, ptr, ptr, ptr, ptr, i32, i32, i32, i32, i64, i32, i32, i32, i32, ptr, i32, i32, [41 x i8], i32, i64, i32, i32, i32, ptr, ptr, i32, i32, i64, ptr, ptr, ptr, ptr, [2 x i32], i32, i32, i32, i32, i32, i32, [16 x ptr], i32, ptr, ptr, i32, [8 x %struct.connListener], i32, %struct.connListener, ptr, ptr, ptr, ptr, ptr, ptr, ptr, ptr, ptr, ptr, i32, ptr, i32, ptr, [3 x %struct.pause_event], [256 x i8], ptr, i64, i32, i32, [128 x i32], i32, i32, i64, i32, i32, i32, i32, i32, i64, i64, i64, i64, i64, i64, i64, i64, i64, i64, double, i64, i64, i64, i64, i64, i64, i64, i64, i64, i64, i64, i64, i64, i64, i64, i64, i64, i64, i64, i64, i64, double, i64, i64, i64, i64, i64, ptr, i64, i64, i64, %struct.malloc_stats, i64, i64, i64, i64, i64, i64, i64, i64, i64, i64, i64, i64, double, [4 x i64], i64, i64, i64, i64, [128 x i64], [128 x i64], i64, i64, [7 x %struct.anon], i64, i64, i64, i64, i64, i64, [4 x %struct.durationStats], i32, i32, i32, i32, i32, i32, i32, i32, i32, i32, i32, i32, i64, i32, i32, i32, i32, i64, i64, i32, i32, i32, i32, i32, ptr, [3 x %struct.clientBufferLimitsConfig], i32, i32, i32, ptr, i32, i32, i32, i32, i32, i32, ptr, ptr, i32, i32, i64, i64, i64, i64, i64, i32, i32, ptr, i32, i32, i64, i64, i64, i64, i64, i32, i32, i64, i32, i32, i32, i32, i32, i32, i32, i32, ptr, i32, i64, i64, i64, i64, i32, ptr, i32, ptr, i32, i32, i32, i64, i64, i64, i64, i32, i32, i32, i32, i32, i32, ptr, i32, i32, ptr, i32, i32, i32, [2 x i32], i32, %struct.redisOpArray, i32, ptr, i32, ptr, i32, i32, i32, i32, i32, i32, i32, [41 x i8], [41 x i8], i64, i64, i64, i64, i32, i32, ptr, i64, i64, %struct.replDataBuf, i64, i64, i32, i32, i32, i32, i32, i32, i32, i32, i32, i64, ptr, i64, ptr, ptr, ptr, i32, i32, ptr, ptr, i32, i32, i32, i64, i64, i64, i64, ptr, ptr, i32, ptr, i64, i32, i32, i32, i64, i32, i32, i32, i32, ptr, i32, i32, [41 x i8], i64, i32, ptr, i32, i32, i64, i64, i32, i32, i32, i32, i32, i64, [3 x i32], i32, i32, i32, [10 x i32], ptr, ptr, i32, i64, ptr, ptr, i32, i32, i32, i32, i64, i64, i64, i64, i64, i64, i64, i64, i64, i64, i32, i32, i64, i64, i32, i64, i64, i64, i64, i64, ptr, ptr, i32, ptr, i32, i32, i32, i32, i64, i64, ptr, ptr, i32, i32, i32, i32, i32, ptr, ptr, ptr, i32, i32, i32, i32, i32, i32, i32, i64, i32, i32, i64, i32, i32, i32, i32, i32, i32, i32, i64, ptr, ptr, i64, ptr, i32, %struct.aclInfo, i32, i64, i32, i32, i32, %struct.redisTLSContextConfig, ptr, ptr, ptr, ptr, ptr, i64, i32, ptr, i32, i32, i32, i64, i32, ptr }
%struct.connListener = type { [16 x i32], i32, ptr, i32, i32, ptr, ptr }
%struct.pause_event = type { i32, i64 }
%struct.malloc_stats = type { i64, i64, i64, i64, i64, i64, i64, i64, i64, i64, i64 }
%struct.anon = type { i64, i64, [16 x i64], i32 }
%struct.durationStats = type { i64, i64, i64 }
%struct.clientBufferLimitsConfig = type { i64, i64, i64 }
%struct.redisOpArray = type { ptr, i32, i32 }
%struct.replDataBuf = type { ptr, i64, i64, i64, i64 }
%struct.aclInfo = type { i64, i64, i64, i64 }
%struct.redisTLSContextConfig = type { ptr, ptr, ptr, ptr, ptr, ptr, ptr, ptr, ptr, ptr, ptr, ptr, i32, i32, i32, i32 }
%struct.client = type { i64, i64, ptr, i8, i8, i8, i8, i32, ptr, ptr, ptr, ptr, ptr, i64, i64, i32, ptr, i32, i32, ptr, i64, ptr, ptr, ptr, ptr, ptr, i32, i32, i64, ptr, i64, ptr, i64, i64, i64, i32, ptr, i64, i64, i32, i32, i32, i32, i64, i64, ptr, i64, i64, i64, i64, i64, i64, i64, i64, [41 x i8], i32, ptr, i32, i32, i64, %struct.multiState, %struct.blockingState, i64, ptr, ptr, ptr, ptr, ptr, ptr, ptr, ptr, ptr, ptr, ptr, ptr, ptr, ptr, i64, ptr, i64, i32, ptr, ptr, ptr, i64, %struct.listNode, i64, i64, i32, i64, ptr }
%struct.multiState = type { ptr, i32, i32, i32, i64, i32 }
%struct.blockingState = type { i32, i64, i32, ptr, i32, i32, i64, ptr, ptr, i64 }
%struct.listNode = type { ptr, ptr, ptr }
%struct.redisDb = type { ptr, ptr, ptr, ptr, ptr, ptr, ptr, i32, i64, i64, ptr }

@shared = external global %struct.sharedObjectsStruct, align 8
@server = external global %struct.redisServer, align 8
@.str.13 = private unnamed_addr constant [40 x i8] c"increment would produce NaN or Infinity\00", align 1
@.str.14 = private unnamed_addr constant [12 x i8] c"incrbyfloat\00", align 1

; Function Attrs: nounwind uwtable
define dso_local void @incrbyfloatCommand(ptr noundef %0) #0 {
  %2 = alloca ptr, align 8
  %3 = alloca x86_fp80, align 16
  %4 = alloca x86_fp80, align 16
  %5 = alloca ptr, align 8
  %6 = alloca ptr, align 8
  %7 = alloca ptr, align 8
  %8 = alloca i32, align 4
  store ptr %0, ptr %2, align 8, !tbaa !5
  call void @llvm.lifetime.start.p0(i64 16, ptr %3) #10
  call void @llvm.lifetime.start.p0(i64 16, ptr %4) #10
  call void @llvm.lifetime.start.p0(i64 8, ptr %5) #10
  call void @llvm.lifetime.start.p0(i64 8, ptr %6) #10
  call void @llvm.lifetime.start.p0(i64 8, ptr %7) #10
  %9 = load ptr, ptr %2, align 8, !tbaa !5
  %10 = getelementptr inbounds nuw %struct.client, ptr %9, i32 0, i32 8
  %11 = load ptr, ptr %10, align 8, !tbaa !18
  %12 = load ptr, ptr %2, align 8, !tbaa !5
  %13 = getelementptr inbounds nuw %struct.client, ptr %12, i32 0, i32 16
  %14 = load ptr, ptr %13, align 8, !tbaa !63
  %15 = getelementptr inbounds ptr, ptr %14, i64 1
  %16 = load ptr, ptr %15, align 8, !tbaa !12
  %17 = call ptr @lookupKeyWriteWithDictEntry(ptr noundef %11, ptr noundef %16, ptr noundef %7)
  store ptr %17, ptr %5, align 8, !tbaa !12
  %18 = load ptr, ptr %2, align 8, !tbaa !5
  %19 = load ptr, ptr %5, align 8, !tbaa !12
  %20 = call i32 @checkType(ptr noundef %18, ptr noundef %19, i32 noundef 0)
  %21 = icmp ne i32 %20, 0
  br i1 %21, label %22, label %23

22:                                               ; preds = %1
  store i32 1, ptr %8, align 4
  br label %112

23:                                               ; preds = %1
  %24 = load ptr, ptr %2, align 8, !tbaa !5
  %25 = load ptr, ptr %5, align 8, !tbaa !12
  %26 = call i32 @getLongDoubleFromObjectOrReply(ptr noundef %24, ptr noundef %25, ptr noundef %4, ptr noundef null)
  %27 = icmp ne i32 %26, 0
  br i1 %27, label %37, label %28

28:                                               ; preds = %23
  %29 = load ptr, ptr %2, align 8, !tbaa !5
  %30 = load ptr, ptr %2, align 8, !tbaa !5
  %31 = getelementptr inbounds nuw %struct.client, ptr %30, i32 0, i32 16
  %32 = load ptr, ptr %31, align 8, !tbaa !63
  %33 = getelementptr inbounds ptr, ptr %32, i64 2
  %34 = load ptr, ptr %33, align 8, !tbaa !12
  %35 = call i32 @getLongDoubleFromObjectOrReply(ptr noundef %29, ptr noundef %34, ptr noundef %3, ptr noundef null)
  %36 = icmp ne i32 %35, 0
  br i1 %36, label %37, label %38

37:                                               ; preds = %28, %23
  store i32 1, ptr %8, align 4
  br label %112

38:                                               ; preds = %28
  %39 = load x86_fp80, ptr %3, align 16, !tbaa !92
  %40 = load x86_fp80, ptr %4, align 16, !tbaa !92
  %41 = fadd x86_fp80 %40, %39
  store x86_fp80 %41, ptr %4, align 16, !tbaa !92
  %42 = load x86_fp80, ptr %4, align 16, !tbaa !92
  %43 = call i1 @llvm.is.fpclass.f80(x86_fp80 %42, i32 3)
  br i1 %43, label %53, label %44

44:                                               ; preds = %38
  %45 = load x86_fp80, ptr %4, align 16, !tbaa !92
  %46 = call x86_fp80 @llvm.fabs.f80(x86_fp80 %45) #14
  %47 = fcmp oeq x86_fp80 %46, 0xK7FFF8000000000000000
  %48 = bitcast x86_fp80 %45 to i80
  %49 = icmp slt i80 %48, 0
  %50 = select i1 %49, i32 -1, i32 1
  %51 = select i1 %47, i32 %50, i32 0
  %52 = icmp ne i32 %51, 0
  br i1 %52, label %53, label %55

53:                                               ; preds = %44, %38
  %54 = load ptr, ptr %2, align 8, !tbaa !5
  call void @addReplyError(ptr noundef %54, ptr noundef @.str.13)
  store i32 1, ptr %8, align 4
  br label %112

55:                                               ; preds = %44
  %56 = load x86_fp80, ptr %4, align 16, !tbaa !92
  %57 = call ptr @createStringObjectFromLongDouble(x86_fp80 noundef %56, i32 noundef 1)
  store ptr %57, ptr %6, align 8, !tbaa !12
  %58 = load ptr, ptr %5, align 8, !tbaa !12
  %59 = icmp ne ptr %58, null
  br i1 %59, label %60, label %71

60:                                               ; preds = %55
  %61 = load ptr, ptr %2, align 8, !tbaa !5
  %62 = getelementptr inbounds nuw %struct.client, ptr %61, i32 0, i32 8
  %63 = load ptr, ptr %62, align 8, !tbaa !18
  %64 = load ptr, ptr %2, align 8, !tbaa !5
  %65 = getelementptr inbounds nuw %struct.client, ptr %64, i32 0, i32 16
  %66 = load ptr, ptr %65, align 8, !tbaa !63
  %67 = getelementptr inbounds ptr, ptr %66, i64 1
  %68 = load ptr, ptr %67, align 8, !tbaa !12
  %69 = load ptr, ptr %6, align 8, !tbaa !12
  %70 = load ptr, ptr %7, align 8, !tbaa !16
  call void @dbReplaceValueWithDictEntry(ptr noundef %63, ptr noundef %68, ptr noundef %69, ptr noundef %70)
  br label %82

71:                                               ; preds = %55
  %72 = load ptr, ptr %2, align 8, !tbaa !5
  %73 = getelementptr inbounds nuw %struct.client, ptr %72, i32 0, i32 8
  %74 = load ptr, ptr %73, align 8, !tbaa !18
  %75 = load ptr, ptr %2, align 8, !tbaa !5
  %76 = getelementptr inbounds nuw %struct.client, ptr %75, i32 0, i32 16
  %77 = load ptr, ptr %76, align 8, !tbaa !63
  %78 = getelementptr inbounds ptr, ptr %77, i64 1
  %79 = load ptr, ptr %78, align 8, !tbaa !12
  %80 = load ptr, ptr %6, align 8, !tbaa !12
  %81 = call ptr @dbAdd(ptr noundef %74, ptr noundef %79, ptr noundef %80)
  br label %82

82:                                               ; preds = %71, %60
  %83 = load ptr, ptr %2, align 8, !tbaa !5
  %84 = load ptr, ptr %2, align 8, !tbaa !5
  %85 = getelementptr inbounds nuw %struct.client, ptr %84, i32 0, i32 8
  %86 = load ptr, ptr %85, align 8, !tbaa !18
  %87 = load ptr, ptr %2, align 8, !tbaa !5
  %88 = getelementptr inbounds nuw %struct.client, ptr %87, i32 0, i32 16
  %89 = load ptr, ptr %88, align 8, !tbaa !63
  %90 = getelementptr inbounds ptr, ptr %89, i64 1
  %91 = load ptr, ptr %90, align 8, !tbaa !12
  call void @signalModifiedKey(ptr noundef %83, ptr noundef %86, ptr noundef %91)
  %92 = load ptr, ptr %2, align 8, !tbaa !5
  %93 = getelementptr inbounds nuw %struct.client, ptr %92, i32 0, i32 16
  %94 = load ptr, ptr %93, align 8, !tbaa !63
  %95 = getelementptr inbounds ptr, ptr %94, i64 1
  %96 = load ptr, ptr %95, align 8, !tbaa !12
  %97 = load ptr, ptr %2, align 8, !tbaa !5
  %98 = getelementptr inbounds nuw %struct.client, ptr %97, i32 0, i32 8
  %99 = load ptr, ptr %98, align 8, !tbaa !18
  %100 = getelementptr inbounds nuw %struct.redisDb, ptr %99, i32 0, i32 7
  %101 = load i32, ptr %100, align 8, !tbaa !55
  call void @notifyKeyspaceEvent(i32 noundef 8, ptr noundef @.str.14, ptr noundef %96, i32 noundef %101)
  %102 = load i64, ptr getelementptr inbounds nuw (%struct.redisServer, ptr @server, i32 0, i32 227), align 8, !tbaa !35
  %103 = add nsw i64 %102, 1
  store i64 %103, ptr getelementptr inbounds nuw (%struct.redisServer, ptr @server, i32 0, i32 227), align 8, !tbaa !35
  %104 = load ptr, ptr %2, align 8, !tbaa !5
  %105 = load ptr, ptr %6, align 8, !tbaa !12
  call void @addReplyBulk(ptr noundef %104, ptr noundef %105)
  %106 = load ptr, ptr %2, align 8, !tbaa !5
  %107 = load ptr, ptr getelementptr inbounds nuw (%struct.sharedObjectsStruct, ptr @shared, i32 0, i32 61), align 8, !tbaa !57
  call void @rewriteClientCommandArgument(ptr noundef %106, i32 noundef 0, ptr noundef %107)
  %108 = load ptr, ptr %2, align 8, !tbaa !5
  %109 = load ptr, ptr %6, align 8, !tbaa !12
  call void @rewriteClientCommandArgument(ptr noundef %108, i32 noundef 2, ptr noundef %109)
  %110 = load ptr, ptr %2, align 8, !tbaa !5
  %111 = load ptr, ptr getelementptr inbounds nuw (%struct.sharedObjectsStruct, ptr @shared, i32 0, i32 77), align 8, !tbaa !94
  call void @rewriteClientCommandArgument(ptr noundef %110, i32 noundef 3, ptr noundef %111)
  store i32 0, ptr %8, align 4
  br label %112

112:                                              ; preds = %82, %53, %37, %22
  call void @llvm.lifetime.end.p0(i64 8, ptr %7) #10
  call void @llvm.lifetime.end.p0(i64 8, ptr %6) #10
  call void @llvm.lifetime.end.p0(i64 8, ptr %5) #10
  call void @llvm.lifetime.end.p0(i64 16, ptr %4) #10
  call void @llvm.lifetime.end.p0(i64 16, ptr %3) #10
  %113 = load i32, ptr %8, align 4
  switch i32 %113, label %115 [
    i32 0, label %114
    i32 1, label %114
  ]

114:                                              ; preds = %112, %112
  ret void

115:                                              ; preds = %112
  unreachable
}