; Function Attrs: nounwind uwtable
define dso_local void @incrbyfloatCommand(ptr noundef %0) local_unnamed_addr #0 {
  %2 = alloca x86_fp80, align 16
  %3 = alloca x86_fp80, align 16
  %4 = alloca ptr, align 8
  call void @llvm.lifetime.start.p0(i64 16, ptr nonnull %2) #11
  call void @llvm.lifetime.start.p0(i64 16, ptr nonnull %3) #11
  call void @llvm.lifetime.start.p0(i64 8, ptr nonnull %4) #11
  %5 = getelementptr inbounds nuw i8, ptr %0, i64 32
  %6 = load ptr, ptr %5, align 8, !tbaa !32
  %7 = getelementptr inbounds nuw i8, ptr %0, i64 96
  %8 = load ptr, ptr %7, align 8, !tbaa !9
  %9 = getelementptr inbounds nuw i8, ptr %8, i64 8
  %10 = load ptr, ptr %9, align 8, !tbaa !29
  %11 = call ptr @lookupKeyWriteWithDictEntry(ptr noundef %6, ptr noundef %10, ptr noundef nonnull %4) #11
  %12 = call i32 @checkType(ptr noundef %0, ptr noundef %11, i32 noundef 0) #11
  %.not = icmp eq i32 %12, 0
  br i1 %.not, label %13, label %51

13:                                               ; preds = %1
  %14 = call i32 @getLongDoubleFromObjectOrReply(ptr noundef nonnull %0, ptr noundef %11, ptr noundef nonnull %3, ptr noundef null) #11
  %.not27 = icmp eq i32 %14, 0
  br i1 %.not27, label %15, label %51

15:                                               ; preds = %13
  %16 = load ptr, ptr %7, align 8, !tbaa !9
  %17 = getelementptr inbounds nuw i8, ptr %16, i64 16
  %18 = load ptr, ptr %17, align 8, !tbaa !29
  %19 = call i32 @getLongDoubleFromObjectOrReply(ptr noundef nonnull %0, ptr noundef %18, ptr noundef nonnull %2, ptr noundef null) #11
  %.not28 = icmp eq i32 %19, 0
  br i1 %.not28, label %20, label %51

20:                                               ; preds = %15
  %21 = load x86_fp80, ptr %2, align 16, !tbaa !84
  %22 = load x86_fp80, ptr %3, align 16, !tbaa !84
  %23 = fadd x86_fp80 %21, %22
  store x86_fp80 %23, ptr %3, align 16, !tbaa !84
  %24 = call x86_fp80 @llvm.fabs.f80(x86_fp80 %23)
  %or.cond = fcmp ueq x86_fp80 %24, 0xK7FFF8000000000000000
  br i1 %or.cond, label %25, label %26

25:                                               ; preds = %20
  call void @addReplyError(ptr noundef nonnull %0, ptr noundef nonnull @.str.13) #11
  br label %51

26:                                               ; preds = %20
  %27 = call ptr @createStringObjectFromLongDouble(x86_fp80 noundef %23, i32 noundef 1) #11
  %.not29 = icmp eq ptr %11, null
  %28 = load ptr, ptr %5, align 8, !tbaa !32
  %29 = load ptr, ptr %7, align 8, !tbaa !9
  %30 = getelementptr inbounds nuw i8, ptr %29, i64 8
  %31 = load ptr, ptr %30, align 8, !tbaa !29
  br i1 %.not29, label %34, label %32

32:                                               ; preds = %26
  %33 = load ptr, ptr %4, align 8, !tbaa !31
  call void @dbReplaceValueWithDictEntry(ptr noundef %28, ptr noundef %31, ptr noundef %27, ptr noundef %33) #11
  br label %36

34:                                               ; preds = %26
  %35 = call ptr @dbAdd(ptr noundef %28, ptr noundef %31, ptr noundef %27) #11
  br label %36

36:                                               ; preds = %34, %32
  %37 = load ptr, ptr %5, align 8, !tbaa !32
  %38 = load ptr, ptr %7, align 8, !tbaa !9
  %39 = getelementptr inbounds nuw i8, ptr %38, i64 8
  %40 = load ptr, ptr %39, align 8, !tbaa !29
  call void @signalModifiedKey(ptr noundef nonnull %0, ptr noundef %37, ptr noundef %40) #11
  %41 = load ptr, ptr %7, align 8, !tbaa !9
  %42 = getelementptr inbounds nuw i8, ptr %41, i64 8
  %43 = load ptr, ptr %42, align 8, !tbaa !29
  %44 = load ptr, ptr %5, align 8, !tbaa !32
  %45 = getelementptr inbounds nuw i8, ptr %44, i64 56
  %46 = load i32, ptr %45, align 8, !tbaa !54
  call void @notifyKeyspaceEvent(i32 noundef 8, ptr noundef nonnull @.str.14, ptr noundef %43, i32 noundef %46) #11
  %47 = load i64, ptr getelementptr inbounds nuw (i8, ptr @server, i64 6720), align 8, !tbaa !33
  %48 = add nsw i64 %47, 1
  store i64 %48, ptr getelementptr inbounds nuw (i8, ptr @server, i64 6720), align 8, !tbaa !33
  call void @addReplyBulk(ptr noundef nonnull %0, ptr noundef %27) #11
  %49 = load ptr, ptr getelementptr inbounds nuw (i8, ptr @shared, i64 584), align 8, !tbaa !56
  call void @rewriteClientCommandArgument(ptr noundef nonnull %0, i32 noundef 0, ptr noundef %49) #11
  call void @rewriteClientCommandArgument(ptr noundef nonnull %0, i32 noundef 2, ptr noundef %27) #11
  %50 = load ptr, ptr getelementptr inbounds nuw (i8, ptr @shared, i64 712), align 8, !tbaa !86
  call void @rewriteClientCommandArgument(ptr noundef nonnull %0, i32 noundef 3, ptr noundef %50) #11
  br label %51

51:                                               ; preds = %13, %15, %1, %36, %25
  call void @llvm.lifetime.end.p0(i64 8, ptr nonnull %4) #11
  call void @llvm.lifetime.end.p0(i64 16, ptr nonnull %3) #11
  call void @llvm.lifetime.end.p0(i64 16, ptr nonnull %2) #11
  ret void
}